target datalayout = "e-m:e-p270:32:32-p271:32:32-p272:64:64-i64:64-i128:128-f80:128-n8:16:32:64-S128"
target triple = "x86_64-pc-linux-gnu"

%struct.expert_field = type { i32, i32 }

@is_uplink = internal global i32 0, align 4
@ei_gsm_a_dtap_extraneous_data = internal global %struct.expert_field zeroinitializer, align 4
@ei_gsm_a_dtap_missing_mandatory_element = internal global %struct.expert_field zeroinitializer, align 4
@.str.824 = private unnamed_addr constant [1 x i8] zeroinitializer, align 1
@.str.1325 = private unnamed_addr constant [62 x i8] c"Missing Mandatory element %s%s, rest of dissection is suspect\00", align 1
@.str.1337 = private unnamed_addr constant [12 x i8] c" Equivalent\00", align 1
@.str.1338 = private unnamed_addr constant [16 x i8] c" - Per MS T3212\00", align 1

; Function Attrs: null_pointer_is_valid sspstrong uwtable
define internal void @dtap_mm_loc_upd_acc(ptr noundef %0, ptr noundef %1, ptr noundef %2, i32 noundef %3, i32 noundef %4) #1 {
  %6 = alloca ptr, align 8
  %7 = alloca ptr, align 8
  %8 = alloca ptr, align 8
  %9 = alloca i32, align 4
  %10 = alloca i32, align 4
  %11 = alloca i32, align 4
  %12 = alloca i32, align 4
  %13 = alloca i32, align 4
  %14 = alloca i32, align 4
  store ptr %0, ptr %6, align 8
  store ptr %1, ptr %7, align 8
  store ptr %2, ptr %8, align 8
  store i32 %3, ptr %9, align 4
  store i32 %4, ptr %10, align 4
  call void @llvm.lifetime.start.p0(i64 4, ptr %11) #7
  call void @llvm.lifetime.start.p0(i64 4, ptr %12) #7
  call void @llvm.lifetime.start.p0(i64 4, ptr %13) #7
  %15 = load i32, ptr %9, align 4
  store i32 %15, ptr %11, align 4
  %16 = load i32, ptr %10, align 4
  store i32 %16, ptr %13, align 4
  store i32 0, ptr @is_uplink, align 4
  %17 = load i32, ptr %13, align 4
  %18 = icmp sgt i32 %17, 0
  br i1 %18, label %19, label %34

19:                                               ; preds = %5
  %20 = load ptr, ptr %6, align 8
  %21 = load ptr, ptr %7, align 8
  %22 = load ptr, ptr %8, align 8
  %23 = load i32, ptr %11, align 4
  %24 = call zeroext i16 @elem_v(ptr noundef %20, ptr noundef %21, ptr noundef %22, i32 noundef 4, i32 noundef 2, i32 noundef %23, ptr noundef null)
  %25 = zext i16 %24 to i32
  store i32 %25, ptr %12, align 4
  %26 = icmp ugt i32 %25, 0
  br i1 %26, label %27, label %34

27:                                               ; preds = %19
  %28 = load i32, ptr %12, align 4
  %29 = load i32, ptr %11, align 4
  %30 = add i32 %29, %28
  store i32 %30, ptr %11, align 4
  %31 = load i32, ptr %12, align 4
  %32 = load i32, ptr %13, align 4
  %33 = sub i32 %32, %31
  store i32 %33, ptr %13, align 4
  br label %41

34:                                               ; preds = %19, %5
  %35 = load ptr, ptr %7, align 8
  %36 = load ptr, ptr %8, align 8
  %37 = load ptr, ptr %6, align 8
  %38 = load i32, ptr %11, align 4
  %39 = call ptr @get_gsm_a_msg_string(i32 noundef 4, i32 noundef 2)
  %40 = call ptr (ptr, ptr, ptr, ptr, i32, i32, ptr, ...) @proto_tree_add_expert_format(ptr noundef %35, ptr noundef %36, ptr noundef @ei_gsm_a_dtap_missing_mandatory_element, ptr noundef %37, i32 noundef %38, i32 noundef 0, ptr noundef @.str.1325, ptr noundef %39, ptr noundef @.str.824)
  br label %41

41:                                               ; preds = %34, %27
  %42 = load i32, ptr %13, align 4
  %43 = icmp sle i32 %42, 0
  br i1 %43, label %44, label %45

44:                                               ; preds = %41
  store i32 1, ptr %14, align 4
  br label %194

45:                                               ; preds = %41
  %46 = load ptr, ptr %6, align 8
  %47 = load ptr, ptr %7, align 8
  %48 = load ptr, ptr %8, align 8
  %49 = load i32, ptr %11, align 4
  %50 = load i32, ptr %13, align 4
  %51 = call zeroext i16 @elem_tlv(ptr noundef %46, ptr noundef %47, ptr noundef %48, i8 noundef zeroext 23, i32 noundef 4, i32 noundef 3, i32 noundef %49, i32 noundef %50, ptr noundef null)
  %52 = zext i16 %51 to i32
  store i32 %52, ptr %12, align 4
  %53 = icmp ugt i32 %52, 0
  br i1 %53, label %54, label %61

54:                                               ; preds = %45
  %55 = load i32, ptr %12, align 4
  %56 = load i32, ptr %11, align 4
  %57 = add i32 %56, %55
  store i32 %57, ptr %11, align 4
  %58 = load i32, ptr %12, align 4
  %59 = load i32, ptr %13, align 4
  %60 = sub i32 %59, %58
  store i32 %60, ptr %13, align 4
  br label %61

61:                                               ; preds = %54, %45
  %62 = load i32, ptr %13, align 4
  %63 = icmp sle i32 %62, 0
  br i1 %63, label %64, label %65

64:                                               ; preds = %61
  store i32 1, ptr %14, align 4
  br label %194

65:                                               ; preds = %61
  %66 = load ptr, ptr %6, align 8
  %67 = load ptr, ptr %7, align 8
  %68 = load ptr, ptr %8, align 8
  %69 = load i32, ptr %11, align 4
  %70 = call zeroext i16 @elem_t(ptr noundef %66, ptr noundef %67, ptr noundef %68, i8 noundef zeroext -95, i32 noundef 1, i32 noundef 10, i32 noundef %69, ptr noundef null)
  %71 = zext i16 %70 to i32
  store i32 %71, ptr %12, align 4
  %72 = icmp ugt i32 %71, 0
  br i1 %72, label %73, label %80

73:                                               ; preds = %65
  %74 = load i32, ptr %12, align 4
  %75 = load i32, ptr %11, align 4
  %76 = add i32 %75, %74
  store i32 %76, ptr %11, align 4
  %77 = load i32, ptr %12, align 4
  %78 = load i32, ptr %13, align 4
  %79 = sub i32 %78, %77
  store i32 %79, ptr %13, align 4
  br label %80

80:                                               ; preds = %73, %65
  %81 = load i32, ptr %13, align 4
  %82 = icmp sle i32 %81, 0
  br i1 %82, label %83, label %84

83:                                               ; preds = %80
  store i32 1, ptr %14, align 4
  br label %194

84:                                               ; preds = %80
  %85 = load ptr, ptr %6, align 8
  %86 = load ptr, ptr %7, align 8
  %87 = load ptr, ptr %8, align 8
  %88 = load i32, ptr %11, align 4
  %89 = call zeroext i16 @elem_t(ptr noundef %85, ptr noundef %86, ptr noundef %87, i8 noundef zeroext -94, i32 noundef 1, i32 noundef 13, i32 noundef %88, ptr noundef null)
  %90 = zext i16 %89 to i32
  store i32 %90, ptr %12, align 4
  %91 = icmp ugt i32 %90, 0
  br i1 %91, label %92, label %99

92:                                               ; preds = %84
  %93 = load i32, ptr %12, align 4
  %94 = load i32, ptr %11, align 4
  %95 = add i32 %94, %93
  store i32 %95, ptr %11, align 4
  %96 = load i32, ptr %12, align 4
  %97 = load i32, ptr %13, align 4
  %98 = sub i32 %97, %96
  store i32 %98, ptr %13, align 4
  br label %99

99:                                               ; preds = %92, %84
  %100 = load i32, ptr %13, align 4
  %101 = icmp sle i32 %100, 0
  br i1 %101, label %102, label %103

102:                                              ; preds = %99
  store i32 1, ptr %14, align 4
  br label %194

103:                                              ; preds = %99
  %104 = load ptr, ptr %6, align 8
  %105 = load ptr, ptr %7, align 8
  %106 = load ptr, ptr %8, align 8
  %107 = load i32, ptr %11, align 4
  %108 = load i32, ptr %13, align 4
  %109 = call zeroext i16 @elem_tlv(ptr noundef %104, ptr noundef %105, ptr noundef %106, i8 noundef zeroext 74, i32 noundef 4, i32 noundef 15, i32 noundef %107, i32 noundef %108, ptr noundef @.str.1337)
  %110 = zext i16 %109 to i32
  store i32 %110, ptr %12, align 4
  %111 = icmp ugt i32 %110, 0
  br i1 %111, label %112, label %119

112:                                              ; preds = %103
  %113 = load i32, ptr %12, align 4
  %114 = load i32, ptr %11, align 4
  %115 = add i32 %114, %113
  store i32 %115, ptr %11, align 4
  %116 = load i32, ptr %12, align 4
  %117 = load i32, ptr %13, align 4
  %118 = sub i32 %117, %116
  store i32 %118, ptr %13, align 4
  br label %119

119:                                              ; preds = %112, %103
  %120 = load i32, ptr %13, align 4
  %121 = icmp sle i32 %120, 0
  br i1 %121, label %122, label %123

122:                                              ; preds = %119
  store i32 1, ptr %14, align 4
  br label %194

123:                                              ; preds = %119
  %124 = load ptr, ptr %6, align 8
  %125 = load ptr, ptr %7, align 8
  %126 = load ptr, ptr %8, align 8
  %127 = load i32, ptr %11, align 4
  %128 = load i32, ptr %13, align 4
  %129 = call zeroext i16 @elem_tlv(ptr noundef %124, ptr noundef %125, ptr noundef %126, i8 noundef zeroext 52, i32 noundef 1, i32 noundef 16, i32 noundef %127, i32 noundef %128, ptr noundef null)
  %130 = zext i16 %129 to i32
  store i32 %130, ptr %12, align 4
  %131 = icmp ugt i32 %130, 0
  br i1 %131, label %132, label %139

132:                                              ; preds = %123
  %133 = load i32, ptr %12, align 4
  %134 = load i32, ptr %11, align 4
  %135 = add i32 %134, %133
  store i32 %135, ptr %11, align 4
  %136 = load i32, ptr %12, align 4
  %137 = load i32, ptr %13, align 4
  %138 = sub i32 %137, %136
  store i32 %138, ptr %13, align 4
  br label %139

139:                                              ; preds = %132, %123
  %140 = load i32, ptr %13, align 4
  %141 = icmp sle i32 %140, 0
  br i1 %141, label %142, label %143

142:                                              ; preds = %139
  store i32 1, ptr %14, align 4
  br label %194

143:                                              ; preds = %139
  %144 = load ptr, ptr %6, align 8
  %145 = load ptr, ptr %7, align 8
  %146 = load ptr, ptr %8, align 8
  %147 = load i32, ptr %11, align 4
  %148 = load i32, ptr %13, align 4
  %149 = call zeroext i16 @elem_tlv(ptr noundef %144, ptr noundef %145, ptr noundef %146, i8 noundef zeroext 53, i32 noundef 5, i32 noundef 71, i32 noundef %147, i32 noundef %148, ptr noundef @.str.1338)
  %150 = zext i16 %149 to i32
  store i32 %150, ptr %12, align 4
  %151 = icmp ugt i32 %150, 0
  br i1 %151, label %152, label %159

152:                                              ; preds = %143
  %153 = load i32, ptr %12, align 4
  %154 = load i32, ptr %11, align 4
  %155 = add i32 %154, %153
  store i32 %155, ptr %11, align 4
  %156 = load i32, ptr %12, align 4
  %157 = load i32, ptr %13, align 4
  %158 = sub i32 %157, %156
  store i32 %158, ptr %13, align 4
  br label %159

159:                                              ; preds = %152, %143
  %160 = load i32, ptr %13, align 4
  %161 = icmp sle i32 %160, 0
  br i1 %161, label %162, label %163

162:                                              ; preds = %159
  store i32 1, ptr %14, align 4
  br label %194

163:                                              ; preds = %159
  %164 = load ptr, ptr %6, align 8
  %165 = load ptr, ptr %7, align 8
  %166 = load ptr, ptr %8, align 8
  %167 = load i32, ptr %11, align 4
  %168 = call zeroext i16 @elem_tv_short(ptr noundef %164, ptr noundef %165, ptr noundef %166, i8 noundef zeroext -48, i32 noundef 5, i32 noundef 42, i32 noundef %167, ptr noundef null)
  %169 = zext i16 %168 to i32
  store i32 %169, ptr %12, align 4
  %170 = icmp ugt i32 %169, 0
  br i1 %170, label %171, label %178

171:                                              ; preds = %163
  %172 = load i32, ptr %12, align 4
  %173 = load i32, ptr %11, align 4
  %174 = add i32 %173, %172
  store i32 %174, ptr %11, align 4
  %175 = load i32, ptr %12, align 4
  %176 = load i32, ptr %13, align 4
  %177 = sub i32 %176, %175
  store i32 %177, ptr %13, align 4
  br label %178

178:                                              ; preds = %171, %163
  %179 = load i32, ptr %13, align 4
  %180 = icmp ugt i32 %179, 0
  br i1 %180, label %181, label %193

181:                                              ; preds = %178
  %182 = load ptr, ptr %7, align 8
  %183 = load ptr, ptr %8, align 8
  %184 = load ptr, ptr %6, align 8
  %185 = load i32, ptr %11, align 4
  %186 = load i32, ptr %13, align 4
  %187 = sub i32 %186, 0
  %188 = call ptr @proto_tree_add_expert(ptr noundef %182, ptr noundef %183, ptr noundef @ei_gsm_a_dtap_extraneous_data, ptr noundef %184, i32 noundef %185, i32 noundef %187)
  %189 = load i32, ptr %13, align 4
  %190 = sub i32 %189, 0
  %191 = load i32, ptr %11, align 4
  %192 = add i32 %191, %190
  store i32 %192, ptr %11, align 4
  br label %193

193:                                              ; preds = %181, %178
  store i32 0, ptr %14, align 4
  br label %194

194:                                              ; preds = %193, %162, %142, %122, %102, %83, %64, %44
  call void @llvm.lifetime.end.p0(i64 4, ptr %13) #7
  call void @llvm.lifetime.end.p0(i64 4, ptr %12) #7
  call void @llvm.lifetime.end.p0(i64 4, ptr %11) #7
  %195 = load i32, ptr %14, align 4
  switch i32 %195, label %197 [
    i32 0, label %196
    i32 1, label %196
  ]

196:                                              ; preds = %194, %194
  ret void

197:                                              ; preds = %194
  unreachable
}