; Function Attrs: null_pointer_is_valid sspstrong uwtable
define internal void @dtap_mm_loc_upd_acc(ptr noundef %0, ptr noundef %1, ptr noundef %2, i32 noundef %3, i32 noundef %4) #1 {
  store i1 false, ptr @is_uplink, align 4
  %6 = icmp sgt i32 %4, 0
  br i1 %6, label %7, label %13

7:                                                ; preds = %5
  %8 = tail call zeroext i16 @elem_v(ptr noundef %0, ptr noundef %1, ptr noundef %2, i32 noundef 4, i32 noundef 2, i32 noundef %3, ptr noundef null)
  %.not = icmp eq i16 %8, 0
  br i1 %.not, label %13, label %9

9:                                                ; preds = %7
  %10 = zext i16 %8 to i32
  %11 = add i32 %3, %10
  %12 = sub nsw i32 %4, %10
  br label %16

13:                                               ; preds = %7, %5
  %14 = tail call ptr @get_gsm_a_msg_string(i32 noundef 4, i32 noundef 2)
  %15 = tail call ptr (ptr, ptr, ptr, ptr, i32, i32, ptr, ...) @proto_tree_add_expert_format(ptr noundef %1, ptr noundef %2, ptr noundef nonnull @ei_gsm_a_dtap_missing_mandatory_element, ptr noundef %0, i32 noundef %3, i32 noundef 0, ptr noundef nonnull @.str.1325, ptr noundef %14, ptr noundef nonnull @.str.824)
  br label %16

16:                                               ; preds = %13, %9
  %.089 = phi i32 [ %11, %9 ], [ %3, %13 ]
  %.0 = phi i32 [ %12, %9 ], [ %4, %13 ]
  %17 = icmp slt i32 %.0, 1
  br i1 %17, label %61, label %18

18:                                               ; preds = %16
  %19 = tail call zeroext i16 @elem_tlv(ptr noundef %0, ptr noundef %1, ptr noundef %2, i8 noundef zeroext 23, i32 noundef 4, i32 noundef 3, i32 noundef %.089, i32 noundef %.0, ptr noundef null)
  %20 = zext i16 %19 to i32
  %21 = sub nsw i32 %.0, %20
  %22 = icmp slt i32 %21, 1
  br i1 %22, label %61, label %23

23:                                               ; preds = %18
  %24 = add i32 %.089, %20
  %25 = tail call zeroext i16 @elem_t(ptr noundef %0, ptr noundef %1, ptr noundef %2, i8 noundef zeroext -95, i32 noundef 1, i32 noundef 10, i32 noundef %24, ptr noundef null)
  %26 = zext i16 %25 to i32
  %27 = sub nsw i32 %21, %26
  %28 = icmp slt i32 %27, 1
  br i1 %28, label %61, label %29

29:                                               ; preds = %23
  %30 = add i32 %24, %26
  %31 = tail call zeroext i16 @elem_t(ptr noundef %0, ptr noundef %1, ptr noundef %2, i8 noundef zeroext -94, i32 noundef 1, i32 noundef 13, i32 noundef %30, ptr noundef null)
  %32 = zext i16 %31 to i32
  %33 = sub nsw i32 %27, %32
  %34 = icmp slt i32 %33, 1
  br i1 %34, label %61, label %35

35:                                               ; preds = %29
  %36 = add i32 %30, %32
  %37 = tail call zeroext i16 @elem_tlv(ptr noundef %0, ptr noundef %1, ptr noundef %2, i8 noundef zeroext 74, i32 noundef 4, i32 noundef 15, i32 noundef %36, i32 noundef %33, ptr noundef nonnull @.str.1337)
  %38 = zext i16 %37 to i32
  %39 = sub nsw i32 %33, %38
  %40 = icmp slt i32 %39, 1
  br i1 %40, label %61, label %41

41:                                               ; preds = %35
  %42 = add i32 %36, %38
  %43 = tail call zeroext i16 @elem_tlv(ptr noundef %0, ptr noundef %1, ptr noundef %2, i8 noundef zeroext 52, i32 noundef 1, i32 noundef 16, i32 noundef %42, i32 noundef %39, ptr noundef null)
  %44 = zext i16 %43 to i32
  %45 = sub nsw i32 %39, %44
  %46 = icmp slt i32 %45, 1
  br i1 %46, label %61, label %47

47:                                               ; preds = %41
  %48 = add i32 %42, %44
  %49 = tail call zeroext i16 @elem_tlv(ptr noundef %0, ptr noundef %1, ptr noundef %2, i8 noundef zeroext 53, i32 noundef 5, i32 noundef 71, i32 noundef %48, i32 noundef %45, ptr noundef nonnull @.str.1338)
  %50 = zext i16 %49 to i32
  %51 = sub nsw i32 %45, %50
  %52 = icmp slt i32 %51, 1
  br i1 %52, label %61, label %53

53:                                               ; preds = %47
  %54 = add i32 %48, %50
  %55 = tail call zeroext i16 @elem_tv_short(ptr noundef %0, ptr noundef %1, ptr noundef %2, i8 noundef zeroext -48, i32 noundef 5, i32 noundef 42, i32 noundef %54, ptr noundef null)
  %56 = zext i16 %55 to i32
  %.not113 = icmp eq i32 %51, %56
  br i1 %.not113, label %61, label %57

57:                                               ; preds = %53
  %58 = sub nsw i32 %51, %56
  %59 = add i32 %54, %56
  %60 = tail call ptr @proto_tree_add_expert(ptr noundef %1, ptr noundef %2, ptr noundef nonnull @ei_gsm_a_dtap_extraneous_data, ptr noundef %0, i32 noundef %59, i32 noundef %58)
  br label %61

61:                                               ; preds = %53, %57, %47, %41, %35, %29, %23, %18, %16
  ret void
}